target datalayout = "e-m:e-p270:32:32-p271:32:32-p272:64:64-i64:64-i128:128-f80:128-n8:16:32:64-S128"
target triple = "x86_64-pc-linux-gnu"

%"class.std::__cxx11::basic_string" = type { %"struct.std::__cxx11::basic_string<char>::_Alloc_hider", i64, %union.anon }
%"struct.std::__cxx11::basic_string<char>::_Alloc_hider" = type { ptr }
%union.anon = type { i64, [8 x i8] }
%"class.pxrInternal_v0_24__pxrReserved__::UsdZipFile::Iterator" = type { %"class.std::unique_ptr.13" }
%"class.std::unique_ptr.13" = type { %"struct.std::__uniq_ptr_data.14" }
%"struct.std::__uniq_ptr_data.14" = type { %"class.std::__uniq_ptr_impl.15" }
%"class.std::__uniq_ptr_impl.15" = type { %"class.std::tuple.16" }
%"class.std::tuple.16" = type { %"struct.std::_Tuple_impl.17" }
%"struct.std::_Tuple_impl.17" = type { %"struct.std::_Head_base.20" }
%"struct.std::_Head_base.20" = type { ptr }
%"class.pxrInternal_v0_24__pxrReserved__::UsdZipFile::Iterator::_IteratorData" = type { ptr, i64, %"struct.pxrInternal_v0_24__pxrReserved__::(anonymous namespace)::_LocalFileHeader", i64 }
%"struct.pxrInternal_v0_24__pxrReserved__::(anonymous namespace)::_LocalFileHeader" = type { %"struct.pxrInternal_v0_24__pxrReserved__::(anonymous namespace)::_LocalFileHeader::Fixed", ptr, ptr, ptr }
%"struct.pxrInternal_v0_24__pxrReserved__::(anonymous namespace)::_LocalFileHeader::Fixed" = type { i32, i16, i16, i16, i16, i16, i32, i32, i32, i16, i16 }
%"class.std::allocator" = type { i8 }

; Function Attrs: mustprogress nounwind uwtable
define linkonce_odr noundef nonnull align 8 dereferenceable(8) ptr @_ZNSt10_Head_baseILm0EPN32pxrInternal_v0_24__pxrReserved__10UsdZipFile8Iterator13_IteratorDataELb0EE7_M_headERKS5_(ptr noundef nonnull align 8 dereferenceable(8) %0) #2 comdat align 2 {
  %2 = alloca ptr, align 8
  store ptr %0, ptr %2, align 8
  %3 = load ptr, ptr %2, align 8
  %4 = getelementptr inbounds nuw %"struct.std::_Head_base.20", ptr %3, i32 0, i32 0
  ret ptr %4
}

; Function Attrs: mustprogress nounwind uwtable
define linkonce_odr noundef nonnull align 8 dereferenceable(8) ptr @_ZNSt11_Tuple_implILm0EJPN32pxrInternal_v0_24__pxrReserved__10UsdZipFile8Iterator13_IteratorDataESt14default_deleteIS3_EEE7_M_headERKS7_(ptr noundef nonnull align 8 dereferenceable(8) %0) #2 comdat align 2 {
  %2 = alloca ptr, align 8
  store ptr %0, ptr %2, align 8
  %3 = load ptr, ptr %2, align 8
  %4 = call noundef nonnull align 8 dereferenceable(8) ptr @_ZNSt10_Head_baseILm0EPN32pxrInternal_v0_24__pxrReserved__10UsdZipFile8Iterator13_IteratorDataELb0EE7_M_headERKS5_(ptr noundef nonnull align 8 dereferenceable(8) %3) #11
  ret ptr %4
}

; Function Attrs: mustprogress nounwind uwtable
define linkonce_odr noundef nonnull align 8 dereferenceable(8) ptr @_ZSt12__get_helperILm0EPN32pxrInternal_v0_24__pxrReserved__10UsdZipFile8Iterator13_IteratorDataEJSt14default_deleteIS3_EEERKT0_RKSt11_Tuple_implIXT_EJS7_DpT1_EE(ptr noundef nonnull align 8 dereferenceable(8) %0) #2 comdat {
  %2 = alloca ptr, align 8
  store ptr %0, ptr %2, align 8
  %3 = load ptr, ptr %2, align 8
  %4 = call noundef nonnull align 8 dereferenceable(8) ptr @_ZNSt11_Tuple_implILm0EJPN32pxrInternal_v0_24__pxrReserved__10UsdZipFile8Iterator13_IteratorDataESt14default_deleteIS3_EEE7_M_headERKS7_(ptr noundef nonnull align 8 dereferenceable(8) %3) #11
  ret ptr %4
}

; Function Attrs: mustprogress nounwind uwtable
define linkonce_odr noundef nonnull align 8 dereferenceable(8) ptr @_ZSt3getILm0EJPN32pxrInternal_v0_24__pxrReserved__10UsdZipFile8Iterator13_IteratorDataESt14default_deleteIS3_EEERKNSt13tuple_elementIXT_ESt5tupleIJDpT0_EEE4typeERKSB_(ptr noundef nonnull align 8 dereferenceable(8) %0) #2 comdat {
  %2 = alloca ptr, align 8
  store ptr %0, ptr %2, align 8
  %3 = load ptr, ptr %2, align 8
  %4 = call noundef nonnull align 8 dereferenceable(8) ptr @_ZSt12__get_helperILm0EPN32pxrInternal_v0_24__pxrReserved__10UsdZipFile8Iterator13_IteratorDataEJSt14default_deleteIS3_EEERKT0_RKSt11_Tuple_implIXT_EJS7_DpT1_EE(ptr noundef nonnull align 8 dereferenceable(8) %3) #11
  ret ptr %4
}

; Function Attrs: mustprogress nounwind uwtable
define linkonce_odr noundef ptr @_ZNKSt15__uniq_ptr_implIN32pxrInternal_v0_24__pxrReserved__10UsdZipFile8Iterator13_IteratorDataESt14default_deleteIS3_EE6_M_ptrEv(ptr noundef nonnull align 8 dereferenceable(8) %0) #2 comdat align 2 {
  %2 = alloca ptr, align 8
  store ptr %0, ptr %2, align 8
  %3 = load ptr, ptr %2, align 8
  %4 = getelementptr inbounds nuw %"class.std::__uniq_ptr_impl.15", ptr %3, i32 0, i32 0
  %5 = call noundef nonnull align 8 dereferenceable(8) ptr @_ZSt3getILm0EJPN32pxrInternal_v0_24__pxrReserved__10UsdZipFile8Iterator13_IteratorDataESt14default_deleteIS3_EEERKNSt13tuple_elementIXT_ESt5tupleIJDpT0_EEE4typeERKSB_(ptr noundef nonnull align 8 dereferenceable(8) %4) #11
  %6 = load ptr, ptr %5, align 8
  ret ptr %6
}

; Function Attrs: mustprogress nounwind uwtable
define linkonce_odr noundef ptr @_ZNKSt10unique_ptrIN32pxrInternal_v0_24__pxrReserved__10UsdZipFile8Iterator13_IteratorDataESt14default_deleteIS3_EE3getEv(ptr noundef nonnull align 8 dereferenceable(8) %0) #2 comdat align 2 {
  %2 = alloca ptr, align 8
  store ptr %0, ptr %2, align 8
  %3 = load ptr, ptr %2, align 8
  %4 = getelementptr inbounds nuw %"class.std::unique_ptr.13", ptr %3, i32 0, i32 0
  %5 = call noundef ptr @_ZNKSt15__uniq_ptr_implIN32pxrInternal_v0_24__pxrReserved__10UsdZipFile8Iterator13_IteratorDataESt14default_deleteIS3_EE6_M_ptrEv(ptr noundef nonnull align 8 dereferenceable(8) %4) #11
  ret ptr %5
}

; Function Attrs: mustprogress nounwind uwtable
define linkonce_odr noundef ptr @_ZNKSt10unique_ptrIN32pxrInternal_v0_24__pxrReserved__10UsdZipFile8Iterator13_IteratorDataESt14default_deleteIS3_EEptEv(ptr noundef nonnull align 8 dereferenceable(8) %0) #2 comdat align 2 {
  %2 = alloca ptr, align 8
  store ptr %0, ptr %2, align 8
  %3 = load ptr, ptr %2, align 8
  %4 = call noundef ptr @_ZNKSt10unique_ptrIN32pxrInternal_v0_24__pxrReserved__10UsdZipFile8Iterator13_IteratorDataESt14default_deleteIS3_EE3getEv(ptr noundef nonnull align 8 dereferenceable(8) %3) #11
  ret ptr %4
}

; Function Attrs: mustprogress nounwind uwtable
define linkonce_odr noundef zeroext i1 @_ZNKSt10unique_ptrIN32pxrInternal_v0_24__pxrReserved__10UsdZipFile8Iterator13_IteratorDataESt14default_deleteIS3_EEcvbEv(ptr noundef nonnull align 8 dereferenceable(8) %0) #2 comdat align 2 {
  %2 = alloca ptr, align 8
  store ptr %0, ptr %2, align 8
  %3 = load ptr, ptr %2, align 8
  %4 = call noundef ptr @_ZNKSt10unique_ptrIN32pxrInternal_v0_24__pxrReserved__10UsdZipFile8Iterator13_IteratorDataESt14default_deleteIS3_EE3getEv(ptr noundef nonnull align 8 dereferenceable(8) %3) #11
  %5 = icmp eq ptr %4, null
  %6 = select i1 %5, i1 false, i1 true
  ret i1 %6
}

; Function Attrs: mustprogress uwtable
define void @_ZNK32pxrInternal_v0_24__pxrReserved__10UsdZipFile8IteratordeB5cxx11Ev(ptr dead_on_unwind noalias writable sret(%"class.std::__cxx11::basic_string") align 8 %0, ptr noundef nonnull align 8 dereferenceable(8) %1) #0 align 2 personality ptr @__gxx_personality_v0 {
  %3 = alloca ptr, align 8
  %4 = alloca ptr, align 8
  %5 = alloca ptr, align 8
  %6 = alloca %"class.std::allocator", align 1
  %7 = alloca ptr, align 8
  %8 = alloca i32, align 4
  store ptr %0, ptr %3, align 8
  store ptr %1, ptr %4, align 8
  %9 = load ptr, ptr %4, align 8
  %10 = getelementptr inbounds nuw %"class.pxrInternal_v0_24__pxrReserved__::UsdZipFile::Iterator", ptr %9, i32 0, i32 0
  %11 = call noundef zeroext i1 @_ZNKSt10unique_ptrIN32pxrInternal_v0_24__pxrReserved__10UsdZipFile8Iterator13_IteratorDataESt14default_deleteIS3_EEcvbEv(ptr noundef nonnull align 8 dereferenceable(8) %10) #11
  br i1 %11, label %12, label %29

12:                                               ; preds = %2
  %13 = getelementptr inbounds nuw %"class.pxrInternal_v0_24__pxrReserved__::UsdZipFile::Iterator", ptr %9, i32 0, i32 0
  %14 = call noundef ptr @_ZNKSt10unique_ptrIN32pxrInternal_v0_24__pxrReserved__10UsdZipFile8Iterator13_IteratorDataESt14default_deleteIS3_EEptEv(ptr noundef nonnull align 8 dereferenceable(8) %13) #11
  %15 = getelementptr inbounds nuw %"class.pxrInternal_v0_24__pxrReserved__::UsdZipFile::Iterator::_IteratorData", ptr %14, i32 0, i32 2
  store ptr %15, ptr %5, align 8
  %16 = load ptr, ptr %5, align 8
  %17 = getelementptr inbounds nuw %"struct.pxrInternal_v0_24__pxrReserved__::(anonymous namespace)::_LocalFileHeader", ptr %16, i32 0, i32 1
  %18 = load ptr, ptr %17, align 8
  %19 = load ptr, ptr %5, align 8
  %20 = getelementptr inbounds nuw %"struct.pxrInternal_v0_24__pxrReserved__::(anonymous namespace)::_LocalFileHeader", ptr %19, i32 0, i32 0
  %21 = getelementptr inbounds nuw %"struct.pxrInternal_v0_24__pxrReserved__::(anonymous namespace)::_LocalFileHeader::Fixed", ptr %20, i32 0, i32 9
  %22 = load i16, ptr %21, align 4
  %23 = zext i16 %22 to i64
  call void @_ZNSaIcEC1Ev(ptr noundef nonnull align 1 dereferenceable(1) %6) #11
  invoke void @_ZNSt7__cxx1112basic_stringIcSt11char_traitsIcESaIcEEC1EPKcmRKS3_(ptr noundef nonnull align 8 dereferenceable(32) %0, ptr noundef %18, i64 noundef %23, ptr noundef nonnull align 1 dereferenceable(1) %6)
          to label %24 unwind label %25

24:                                               ; preds = %12
  call void @_ZNSaIcED1Ev(ptr noundef nonnull align 1 dereferenceable(1) %6) #11
  br label %30

25:                                               ; preds = %12
  %26 = landingpad { ptr, i32 }
          cleanup
  %27 = extractvalue { ptr, i32 } %26, 0
  store ptr %27, ptr %7, align 8
  %28 = extractvalue { ptr, i32 } %26, 1
  store i32 %28, ptr %8, align 4
  call void @_ZNSaIcED1Ev(ptr noundef nonnull align 1 dereferenceable(1) %6) #11
  br label %31

29:                                               ; preds = %2
  call void @_ZNSt7__cxx1112basic_stringIcSt11char_traitsIcESaIcEEC1Ev(ptr noundef nonnull align 8 dereferenceable(32) %0) #11
  br label %30

30:                                               ; preds = %29, %24
  ret void

31:                                               ; preds = %25
  %32 = load ptr, ptr %7, align 8
  %33 = load i32, ptr %8, align 4
  %34 = insertvalue { ptr, i32 } poison, ptr %32, 0
  %35 = insertvalue { ptr, i32 } %34, i32 %33, 1
  resume { ptr, i32 } %35
}